target datalayout = "e-m:e-p270:32:32-p271:32:32-p272:64:64-i64:64-i128:128-f80:128-n8:16:32:64-S128"
target triple = "x86_64-pc-linux-gnu"

%struct.pointf_s = type { double, double }

; Function Attrs: nounwind uwtable
define internal double @arrow_length_normal(double noundef %0, double noundef %1, double noundef %2, i32 noundef %3) #0 {
  %5 = alloca double, align 8
  %6 = alloca double, align 8
  %7 = alloca double, align 8
  %8 = alloca i32, align 4
  %9 = alloca [5 x %struct.pointf_s], align 16
  %10 = alloca %struct.pointf_s, align 8
  %11 = alloca %struct.pointf_s, align 8
  %12 = alloca %struct.pointf_s, align 8
  %13 = alloca %struct.pointf_s, align 8
  %14 = alloca %struct.pointf_s, align 8
  %15 = alloca %struct.pointf_s, align 8
  %16 = alloca double, align 8
  %17 = alloca double, align 8
  %18 = alloca double, align 8
  %19 = alloca double, align 8
  %20 = alloca double, align 8
  %21 = alloca double, align 8
  %22 = alloca double, align 8
  %23 = alloca double, align 8
  store double %0, ptr %5, align 8, !tbaa !53
  store double %1, ptr %6, align 8, !tbaa !53
  store double %2, ptr %7, align 8, !tbaa !53
  store i32 %3, ptr %8, align 4, !tbaa !10
  call void @llvm.lifetime.start.p0(i64 80, ptr %9) #9
  call void @llvm.lifetime.start.p0(i64 16, ptr %10) #9
  call void @llvm.memset.p0.i64(ptr align 8 %10, i8 0, i64 16, i1 false)
  call void @llvm.lifetime.start.p0(i64 16, ptr %11) #9
  %24 = getelementptr inbounds nuw %struct.pointf_s, ptr %11, i32 0, i32 0
  %25 = load double, ptr %5, align 8, !tbaa !53
  %26 = load double, ptr %6, align 8, !tbaa !53
  %27 = fmul double %25, %26
  %28 = fmul double %27, 1.000000e+01
  store double %28, ptr %24, align 8, !tbaa !57
  %29 = getelementptr inbounds nuw %struct.pointf_s, ptr %11, i32 0, i32 1
  store double 0.000000e+00, ptr %29, align 8, !tbaa !58
  call void @llvm.lifetime.start.p0(i64 16, ptr %12) #9
  %30 = load double, ptr %7, align 8, !tbaa !53
  %31 = load i32, ptr %8, align 4, !tbaa !10
  %32 = getelementptr inbounds [5 x %struct.pointf_s], ptr %9, i64 0, i64 0
  %33 = getelementptr inbounds nuw { double, double }, ptr %10, i32 0, i32 0
  %34 = load double, ptr %33, align 8
  %35 = getelementptr inbounds nuw { double, double }, ptr %10, i32 0, i32 1
  %36 = load double, ptr %35, align 8
  %37 = getelementptr inbounds nuw { double, double }, ptr %11, i32 0, i32 0
  %38 = load double, ptr %37, align 8
  %39 = getelementptr inbounds nuw { double, double }, ptr %11, i32 0, i32 1
  %40 = load double, ptr %39, align 8
  %41 = call { double, double } @arrow_type_normal0(double %34, double %36, double %38, double %40, double noundef %30, i32 noundef %31, ptr noundef %32)
  %42 = getelementptr inbounds nuw { double, double }, ptr %12, i32 0, i32 0
  %43 = extractvalue { double, double } %41, 0
  store double %43, ptr %42, align 8
  %44 = getelementptr inbounds nuw { double, double }, ptr %12, i32 0, i32 1
  %45 = extractvalue { double, double } %41, 1
  store double %45, ptr %44, align 8
  call void @llvm.lifetime.start.p0(i64 16, ptr %13) #9
  %46 = getelementptr inbounds [5 x %struct.pointf_s], ptr %9, i64 0, i64 1
  call void @llvm.memcpy.p0.p0.i64(ptr align 8 %13, ptr align 16 %46, i64 16, i1 false), !tbaa.struct !56
  call void @llvm.lifetime.start.p0(i64 16, ptr %14) #9
  %47 = getelementptr inbounds [5 x %struct.pointf_s], ptr %9, i64 0, i64 3
  call void @llvm.memcpy.p0.p0.i64(ptr align 8 %14, ptr align 16 %47, i64 16, i1 false), !tbaa.struct !56
  call void @llvm.lifetime.start.p0(i64 16, ptr %15) #9
  %48 = getelementptr inbounds [5 x %struct.pointf_s], ptr %9, i64 0, i64 2
  call void @llvm.memcpy.p0.p0.i64(ptr align 8 %15, ptr align 16 %48, i64 16, i1 false), !tbaa.struct !56
  call void @llvm.lifetime.start.p0(i64 8, ptr %16) #9
  %49 = getelementptr inbounds nuw %struct.pointf_s, ptr %12, i32 0, i32 0
  %50 = load double, ptr %49, align 8, !tbaa !57
  store double %50, ptr %16, align 8, !tbaa !53
  call void @llvm.lifetime.start.p0(i64 8, ptr %17) #9
  %51 = getelementptr inbounds nuw %struct.pointf_s, ptr %13, i32 0, i32 0
  %52 = load double, ptr %51, align 8, !tbaa !57
  %53 = getelementptr inbounds nuw %struct.pointf_s, ptr %15, i32 0, i32 0
  %54 = load double, ptr %53, align 8, !tbaa !57
  %55 = fsub double %52, %54
  %56 = call double @llvm.fabs.f64(double %55)
  store double %56, ptr %17, align 8, !tbaa !53
  call void @llvm.lifetime.start.p0(i64 8, ptr %18) #9
  %57 = getelementptr inbounds nuw %struct.pointf_s, ptr %14, i32 0, i32 1
  %58 = load double, ptr %57, align 8, !tbaa !58
  %59 = getelementptr inbounds nuw %struct.pointf_s, ptr %13, i32 0, i32 1
  %60 = load double, ptr %59, align 8, !tbaa !58
  %61 = fsub double %58, %60
  store double %61, ptr %18, align 8, !tbaa !53
  call void @llvm.lifetime.start.p0(i64 8, ptr %19) #9
  %62 = load double, ptr %18, align 8, !tbaa !53
  %63 = load double, ptr %16, align 8, !tbaa !53
  %64 = fmul double %62, %63
  %65 = load double, ptr %17, align 8, !tbaa !53
  %66 = fdiv double %64, %65
  store double %66, ptr %19, align 8, !tbaa !53
  call void @llvm.lifetime.start.p0(i64 8, ptr %20) #9
  %67 = load double, ptr %7, align 8, !tbaa !53
  %68 = fdiv double %67, 2.000000e+00
  store double %68, ptr %20, align 8, !tbaa !53
  call void @llvm.lifetime.start.p0(i64 8, ptr %21) #9
  %69 = load double, ptr %16, align 8, !tbaa !53
  %70 = load double, ptr %7, align 8, !tbaa !53
  %71 = fmul double %69, %70
  %72 = load double, ptr %19, align 8, !tbaa !53
  %73 = fdiv double %71, %72
  store double %73, ptr %21, align 8, !tbaa !53
  call void @llvm.lifetime.start.p0(i64 8, ptr %22) #9
  %74 = load double, ptr %21, align 8, !tbaa !53
  store double %74, ptr %22, align 8, !tbaa !53
  call void @llvm.lifetime.start.p0(i64 8, ptr %23) #9
  %75 = load i32, ptr %8, align 4, !tbaa !10
  %76 = and i32 %75, 32
  %77 = icmp ne i32 %76, 0
  br i1 %77, label %78, label %80

78:                                               ; preds = %4
  %79 = load double, ptr %22, align 8, !tbaa !53
  br label %82

80:                                               ; preds = %4
  %81 = load double, ptr %20, align 8, !tbaa !53
  br label %82

82:                                               ; preds = %80, %78
  %83 = phi double [ %79, %78 ], [ %81, %80 ]
  store double %83, ptr %23, align 8, !tbaa !53
  %84 = load double, ptr %16, align 8, !tbaa !53
  %85 = load double, ptr %23, align 8, !tbaa !53
  %86 = fsub double %84, %85
  call void @llvm.lifetime.end.p0(i64 8, ptr %23) #9
  call void @llvm.lifetime.end.p0(i64 8, ptr %22) #9
  call void @llvm.lifetime.end.p0(i64 8, ptr %21) #9
  call void @llvm.lifetime.end.p0(i64 8, ptr %20) #9
  call void @llvm.lifetime.end.p0(i64 8, ptr %19) #9
  call void @llvm.lifetime.end.p0(i64 8, ptr %18) #9
  call void @llvm.lifetime.end.p0(i64 8, ptr %17) #9
  call void @llvm.lifetime.end.p0(i64 8, ptr %16) #9
  call void @llvm.lifetime.end.p0(i64 16, ptr %15) #9
  call void @llvm.lifetime.end.p0(i64 16, ptr %14) #9
  call void @llvm.lifetime.end.p0(i64 16, ptr %13) #9
  call void @llvm.lifetime.end.p0(i64 16, ptr %12) #9
  call void @llvm.lifetime.end.p0(i64 16, ptr %11) #9
  call void @llvm.lifetime.end.p0(i64 16, ptr %10) #9
  call void @llvm.lifetime.end.p0(i64 80, ptr %9) #9
  ret double %86
}