; Function Attrs: mustprogress nofree nounwind willreturn memory(write) uwtable
define internal double @arrow_length_normal(double noundef %0, double noundef %1, double noundef %2, i32 noundef %3) #6 {
  %5 = alloca [5 x %struct.pointf_s], align 16
  call void @llvm.lifetime.start.p0(i64 80, ptr nonnull %5) #12
  %6 = fmul double %0, %1
  %7 = fmul double %6, 1.000000e+01
  %8 = call fastcc { double, double } @arrow_type_normal0(double 0.000000e+00, double 0.000000e+00, double %7, double 0.000000e+00, double noundef %2, i32 noundef %3, ptr noundef %5)
  %9 = extractvalue { double, double } %8, 0
  %10 = getelementptr inbounds nuw i8, ptr %5, i64 16
  %.sroa.011.0.copyload = load double, ptr %10, align 16, !tbaa !55
  %.sroa.412.0..sroa_idx = getelementptr inbounds nuw i8, ptr %5, i64 24
  %.sroa.412.0.copyload = load double, ptr %.sroa.412.0..sroa_idx, align 8, !tbaa !55
  %.sroa.3.0..sroa_idx = getelementptr inbounds nuw i8, ptr %5, i64 56
  %.sroa.3.0.copyload = load double, ptr %.sroa.3.0..sroa_idx, align 8, !tbaa !55
  %11 = getelementptr inbounds nuw i8, ptr %5, i64 32
  %.sroa.0.0.copyload = load double, ptr %11, align 16, !tbaa !55
  %12 = fsub double %.sroa.011.0.copyload, %.sroa.0.0.copyload
  %13 = tail call double @llvm.fabs.f64(double %12)
  %14 = fsub double %.sroa.3.0.copyload, %.sroa.412.0.copyload
  %15 = fmul double %9, %14
  %16 = fdiv double %15, %13
  %17 = fmul double %2, 5.000000e-01
  %18 = fmul double %2, %9
  %19 = fdiv double %18, %16
  %20 = and i32 %3, 32
  %.not = icmp eq i32 %20, 0
  %21 = select i1 %.not, double %17, double %19
  %22 = fsub double %9, %21
  call void @llvm.lifetime.end.p0(i64 80, ptr nonnull %5) #12
  ret double %22
}